; Function Attrs: nounwind uwtable
define internal i32 @rd16_c(ptr noundef %0, ptr noundef readonly captures(none) %1, ptr noundef readonly captures(none) %2, i64 noundef %3, i32 noundef %4) #7 {
  %6 = tail call i32 @rd8x8_c(ptr noundef %0, ptr noundef %1, ptr noundef %2, i64 noundef %3, i32 poison)
  %7 = getelementptr inbounds nuw i8, ptr %1, i64 8
  %8 = getelementptr inbounds nuw i8, ptr %2, i64 8
  %9 = tail call i32 @rd8x8_c(ptr noundef %0, ptr noundef nonnull %7, ptr noundef nonnull %8, i64 noundef %3, i32 poison)
  %10 = add nsw i32 %9, %6
  %11 = icmp eq i32 %4, 16
  br i1 %11, label %12, label %22

12:                                               ; preds = %5
  %13 = shl nsw i64 %3, 3
  %14 = getelementptr inbounds i8, ptr %1, i64 %13
  %15 = getelementptr inbounds i8, ptr %2, i64 %13
  %16 = tail call i32 @rd8x8_c(ptr noundef %0, ptr noundef %14, ptr noundef %15, i64 noundef %3, i32 poison)
  %17 = add nsw i32 %16, %10
  %18 = getelementptr inbounds nuw i8, ptr %14, i64 8
  %19 = getelementptr inbounds nuw i8, ptr %15, i64 8
  %20 = tail call i32 @rd8x8_c(ptr noundef %0, ptr noundef nonnull %18, ptr noundef nonnull %19, i64 noundef %3, i32 poison)
  %21 = add nsw i32 %17, %20
  br label %22

22:                                               ; preds = %12, %5
  %.0 = phi i32 [ %21, %12 ], [ %10, %5 ]
  ret i32 %.0
}